#include <math.h>
#include <stdio.h>
#include <stdlib.h>
#include <string.h>

void main()
{
    int n,m,a[100],i,b[100],c[100];
	int *start,*qian,*hou;
	qian=b;
	hou=c;
	scanf("%d",&n);
	scanf("%d",&m);
	
	for (start=a;start<a+n;start++)
	{
	    scanf("%d",&*start);
	}                                      
    
    for (i=0;i<n-m;i++)
    *(qian+i)=a[i];
    for (i=n-m;i<n;i++)
    *(hou+i-n+m)=a[i];
    for (i=0;i<m;i++)
    a[i]=*(hou+i);
    for (i=m;i<n;i++)
    a[i]=*(qian+i-m);
    
    for (i=0;i<n-1;i++)
    printf("%d ",*(a+i));
    printf("%d",*(a+n-1));
}