; ModuleID = '52/1670.c'
source_filename = "52/1670.c"
target datalayout = "e-m:e-p270:32:32-p271:32:32-p272:64:64-i64:64-f80:128-n8:16:32:64-S128"
target triple = "x86_64-pc-linux-gnu"

@.str = private unnamed_addr constant [3 x i8] c"%d\00", align 1
@.str.1 = private unnamed_addr constant [4 x i8] c"%d \00", align 1

; Function Attrs: noinline nounwind uwtable
define dso_local void @main() #0 {
  %1 = alloca i32, align 4
  %2 = alloca i32, align 4
  %3 = alloca [100 x i32], align 16
  %4 = alloca i32, align 4
  %5 = alloca [100 x i32], align 16
  %6 = alloca [100 x i32], align 16
  %7 = alloca i32*, align 8
  %8 = alloca i32*, align 8
  %9 = alloca i32*, align 8
  %10 = getelementptr inbounds [100 x i32], [100 x i32]* %5, i64 0, i64 0
  store i32* %10, i32** %8, align 8
  %11 = getelementptr inbounds [100 x i32], [100 x i32]* %6, i64 0, i64 0
  store i32* %11, i32** %9, align 8
  %12 = call i32 (i8*, ...) @__isoc99_scanf(i8* getelementptr inbounds ([3 x i8], [3 x i8]* @.str, i64 0, i64 0), i32* %1)
  %13 = call i32 (i8*, ...) @__isoc99_scanf(i8* getelementptr inbounds ([3 x i8], [3 x i8]* @.str, i64 0, i64 0), i32* %2)
  %14 = getelementptr inbounds [100 x i32], [100 x i32]* %3, i64 0, i64 0
  store i32* %14, i32** %7, align 8
  br label %15

15:                                               ; preds = %25, %0
  %16 = load i32*, i32** %7, align 8
  %17 = getelementptr inbounds [100 x i32], [100 x i32]* %3, i64 0, i64 0
  %18 = load i32, i32* %1, align 4
  %19 = sext i32 %18 to i64
  %20 = getelementptr inbounds i32, i32* %17, i64 %19
  %21 = icmp ult i32* %16, %20
  br i1 %21, label %22, label %28

22:                                               ; preds = %15
  %23 = load i32*, i32** %7, align 8
  %24 = call i32 (i8*, ...) @__isoc99_scanf(i8* getelementptr inbounds ([3 x i8], [3 x i8]* @.str, i64 0, i64 0), i32* %23)
  br label %25

25:                                               ; preds = %22
  %26 = load i32*, i32** %7, align 8
  %27 = getelementptr inbounds i32, i32* %26, i32 1
  store i32* %27, i32** %7, align 8
  br label %15

28:                                               ; preds = %15
  store i32 0, i32* %4, align 4
  br label %29

29:                                               ; preds = %44, %28
  %30 = load i32, i32* %4, align 4
  %31 = load i32, i32* %1, align 4
  %32 = load i32, i32* %2, align 4
  %33 = sub nsw i32 %31, %32
  %34 = icmp slt i32 %30, %33
  br i1 %34, label %35, label %47

35:                                               ; preds = %29
  %36 = load i32, i32* %4, align 4
  %37 = sext i32 %36 to i64
  %38 = getelementptr inbounds [100 x i32], [100 x i32]* %3, i64 0, i64 %37
  %39 = load i32, i32* %38, align 4
  %40 = load i32*, i32** %8, align 8
  %41 = load i32, i32* %4, align 4
  %42 = sext i32 %41 to i64
  %43 = getelementptr inbounds i32, i32* %40, i64 %42
  store i32 %39, i32* %43, align 4
  br label %44

44:                                               ; preds = %35
  %45 = load i32, i32* %4, align 4
  %46 = add nsw i32 %45, 1
  store i32 %46, i32* %4, align 4
  br label %29

47:                                               ; preds = %29
  %48 = load i32, i32* %1, align 4
  %49 = load i32, i32* %2, align 4
  %50 = sub nsw i32 %48, %49
  store i32 %50, i32* %4, align 4
  br label %51

51:                                               ; preds = %71, %47
  %52 = load i32, i32* %4, align 4
  %53 = load i32, i32* %1, align 4
  %54 = icmp slt i32 %52, %53
  br i1 %54, label %55, label %74

55:                                               ; preds = %51
  %56 = load i32, i32* %4, align 4
  %57 = sext i32 %56 to i64
  %58 = getelementptr inbounds [100 x i32], [100 x i32]* %3, i64 0, i64 %57
  %59 = load i32, i32* %58, align 4
  %60 = load i32*, i32** %9, align 8
  %61 = load i32, i32* %4, align 4
  %62 = sext i32 %61 to i64
  %63 = getelementptr inbounds i32, i32* %60, i64 %62
  %64 = load i32, i32* %1, align 4
  %65 = sext i32 %64 to i64
  %66 = sub i64 0, %65
  %67 = getelementptr inbounds i32, i32* %63, i64 %66
  %68 = load i32, i32* %2, align 4
  %69 = sext i32 %68 to i64
  %70 = getelementptr inbounds i32, i32* %67, i64 %69
  store i32 %59, i32* %70, align 4
  br label %71

71:                                               ; preds = %55
  %72 = load i32, i32* %4, align 4
  %73 = add nsw i32 %72, 1
  store i32 %73, i32* %4, align 4
  br label %51

74:                                               ; preds = %51
  store i32 0, i32* %4, align 4
  br label %75

75:                                               ; preds = %88, %74
  %76 = load i32, i32* %4, align 4
  %77 = load i32, i32* %2, align 4
  %78 = icmp slt i32 %76, %77
  br i1 %78, label %79, label %91

79:                                               ; preds = %75
  %80 = load i32*, i32** %9, align 8
  %81 = load i32, i32* %4, align 4
  %82 = sext i32 %81 to i64
  %83 = getelementptr inbounds i32, i32* %80, i64 %82
  %84 = load i32, i32* %83, align 4
  %85 = load i32, i32* %4, align 4
  %86 = sext i32 %85 to i64
  %87 = getelementptr inbounds [100 x i32], [100 x i32]* %3, i64 0, i64 %86
  store i32 %84, i32* %87, align 4
  br label %88

88:                                               ; preds = %79
  %89 = load i32, i32* %4, align 4
  %90 = add nsw i32 %89, 1
  store i32 %90, i32* %4, align 4
  br label %75

91:                                               ; preds = %75
  %92 = load i32, i32* %2, align 4
  store i32 %92, i32* %4, align 4
  br label %93

93:                                               ; preds = %110, %91
  %94 = load i32, i32* %4, align 4
  %95 = load i32, i32* %1, align 4
  %96 = icmp slt i32 %94, %95
  br i1 %96, label %97, label %113

97:                                               ; preds = %93
  %98 = load i32*, i32** %8, align 8
  %99 = load i32, i32* %4, align 4
  %100 = sext i32 %99 to i64
  %101 = getelementptr inbounds i32, i32* %98, i64 %100
  %102 = load i32, i32* %2, align 4
  %103 = sext i32 %102 to i64
  %104 = sub i64 0, %103
  %105 = getelementptr inbounds i32, i32* %101, i64 %104
  %106 = load i32, i32* %105, align 4
  %107 = load i32, i32* %4, align 4
  %108 = sext i32 %107 to i64
  %109 = getelementptr inbounds [100 x i32], [100 x i32]* %3, i64 0, i64 %108
  store i32 %106, i32* %109, align 4
  br label %110

110:                                              ; preds = %97
  %111 = load i32, i32* %4, align 4
  %112 = add nsw i32 %111, 1
  store i32 %112, i32* %4, align 4
  br label %93

113:                                              ; preds = %93
  store i32 0, i32* %4, align 4
  br label %114

114:                                              ; preds = %126, %113
  %115 = load i32, i32* %4, align 4
  %116 = load i32, i32* %1, align 4
  %117 = sub nsw i32 %116, 1
  %118 = icmp slt i32 %115, %117
  br i1 %118, label %119, label %129

119:                                              ; preds = %114
  %120 = getelementptr inbounds [100 x i32], [100 x i32]* %3, i64 0, i64 0
  %121 = load i32, i32* %4, align 4
  %122 = sext i32 %121 to i64
  %123 = getelementptr inbounds i32, i32* %120, i64 %122
  %124 = load i32, i32* %123, align 4
  %125 = call i32 (i8*, ...) @printf(i8* getelementptr inbounds ([4 x i8], [4 x i8]* @.str.1, i64 0, i64 0), i32 %124)
  br label %126

126:                                              ; preds = %119
  %127 = load i32, i32* %4, align 4
  %128 = add nsw i32 %127, 1
  store i32 %128, i32* %4, align 4
  br label %114

129:                                              ; preds = %114
  %130 = getelementptr inbounds [100 x i32], [100 x i32]* %3, i64 0, i64 0
  %131 = load i32, i32* %1, align 4
  %132 = sext i32 %131 to i64
  %133 = getelementptr inbounds i32, i32* %130, i64 %132
  %134 = getelementptr inbounds i32, i32* %133, i64 -1
  %135 = load i32, i32* %134, align 4
  %136 = call i32 (i8*, ...) @printf(i8* getelementptr inbounds ([3 x i8], [3 x i8]* @.str, i64 0, i64 0), i32 %135)
  ret void
}

declare dso_local i32 @__isoc99_scanf(i8*, ...) #1

declare dso_local i32 @printf(i8*, ...) #1


!llvm.module.flags = !{!0}
!llvm.ident = !{!1}

!0 = !{i32 1, !"wchar_size", i32 4}
!1 = !{!"clang version 10.0.0-4ubuntu1 "}
